target datalayout = "e-m:e-p270:32:32-p271:32:32-p272:64:64-i64:64-i128:128-f80:128-n8:16:32:64-S128"
target triple = "x86_64-pc-linux-gnu"

%struct.QVirtioPCIDevice = type { %struct.QOSGraphObject, %struct.QVirtioDevice, ptr, %struct.QPCIBar, ptr, i16, i64, i32, i32, i32, i32, i32, i32, i32 }
%struct.QOSGraphObject = type { ptr, ptr, ptr, ptr, ptr }
%struct.QVirtioDevice = type { ptr, i16, i64, i8, i8 }
%struct.QPCIBar = type { i64, i8 }

; Function Attrs: nounwind sspstrong uwtable
define internal i64 @get_features(ptr noundef %0) #0 {
  %2 = alloca ptr, align 8
  %3 = alloca ptr, align 8
  %4 = alloca ptr, align 8
  %5 = alloca ptr, align 8
  %6 = alloca i64, align 8
  %7 = alloca i64, align 8
  store ptr %0, ptr %2, align 8
  call void @llvm.lifetime.start.p0(i64 8, ptr %3) #5
  call void @llvm.lifetime.start.p0(i64 8, ptr %4) #5
  %8 = load ptr, ptr %2, align 8
  store ptr %8, ptr %4, align 8
  %9 = load ptr, ptr %4, align 8
  %10 = getelementptr inbounds i8, ptr %9, i64 -40
  store ptr %10, ptr %5, align 8
  call void @llvm.lifetime.end.p0(i64 8, ptr %4) #5
  %11 = load ptr, ptr %5, align 8
  store ptr %11, ptr %3, align 8
  call void @llvm.lifetime.start.p0(i64 8, ptr %6) #5
  store i64 0, ptr %6, align 8, !annotation !4
  call void @llvm.lifetime.start.p0(i64 8, ptr %7) #5
  store i64 0, ptr %7, align 8, !annotation !4
  %12 = load ptr, ptr %3, align 8
  %13 = getelementptr inbounds nuw %struct.QVirtioPCIDevice, ptr %12, i32 0, i32 2
  %14 = load ptr, ptr %13, align 8
  %15 = load ptr, ptr %3, align 8
  %16 = getelementptr inbounds nuw %struct.QVirtioPCIDevice, ptr %15, i32 0, i32 3
  %17 = load ptr, ptr %3, align 8
  %18 = getelementptr inbounds nuw %struct.QVirtioPCIDevice, ptr %17, i32 0, i32 9
  %19 = load i32, ptr %18, align 8
  %20 = zext i32 %19 to i64
  %21 = add i64 %20, 0
  %22 = getelementptr inbounds nuw { i64, i8 }, ptr %16, i32 0, i32 0
  %23 = load i64, ptr %22, align 8
  %24 = getelementptr inbounds nuw { i64, i8 }, ptr %16, i32 0, i32 1
  %25 = load i8, ptr %24, align 8
  call void @qpci_io_writel(ptr noundef %14, i64 %23, i8 %25, i64 noundef %21, i32 noundef 0)
  %26 = load ptr, ptr %3, align 8
  %27 = getelementptr inbounds nuw %struct.QVirtioPCIDevice, ptr %26, i32 0, i32 2
  %28 = load ptr, ptr %27, align 8
  %29 = load ptr, ptr %3, align 8
  %30 = getelementptr inbounds nuw %struct.QVirtioPCIDevice, ptr %29, i32 0, i32 3
  %31 = load ptr, ptr %3, align 8
  %32 = getelementptr inbounds nuw %struct.QVirtioPCIDevice, ptr %31, i32 0, i32 9
  %33 = load i32, ptr %32, align 8
  %34 = zext i32 %33 to i64
  %35 = add i64 %34, 4
  %36 = getelementptr inbounds nuw { i64, i8 }, ptr %30, i32 0, i32 0
  %37 = load i64, ptr %36, align 8
  %38 = getelementptr inbounds nuw { i64, i8 }, ptr %30, i32 0, i32 1
  %39 = load i8, ptr %38, align 8
  %40 = call i32 @qpci_io_readl(ptr noundef %28, i64 %37, i8 %39, i64 noundef %35)
  %41 = zext i32 %40 to i64
  store i64 %41, ptr %6, align 8
  %42 = load ptr, ptr %3, align 8
  %43 = getelementptr inbounds nuw %struct.QVirtioPCIDevice, ptr %42, i32 0, i32 2
  %44 = load ptr, ptr %43, align 8
  %45 = load ptr, ptr %3, align 8
  %46 = getelementptr inbounds nuw %struct.QVirtioPCIDevice, ptr %45, i32 0, i32 3
  %47 = load ptr, ptr %3, align 8
  %48 = getelementptr inbounds nuw %struct.QVirtioPCIDevice, ptr %47, i32 0, i32 9
  %49 = load i32, ptr %48, align 8
  %50 = zext i32 %49 to i64
  %51 = add i64 %50, 0
  %52 = getelementptr inbounds nuw { i64, i8 }, ptr %46, i32 0, i32 0
  %53 = load i64, ptr %52, align 8
  %54 = getelementptr inbounds nuw { i64, i8 }, ptr %46, i32 0, i32 1
  %55 = load i8, ptr %54, align 8
  call void @qpci_io_writel(ptr noundef %44, i64 %53, i8 %55, i64 noundef %51, i32 noundef 1)
  %56 = load ptr, ptr %3, align 8
  %57 = getelementptr inbounds nuw %struct.QVirtioPCIDevice, ptr %56, i32 0, i32 2
  %58 = load ptr, ptr %57, align 8
  %59 = load ptr, ptr %3, align 8
  %60 = getelementptr inbounds nuw %struct.QVirtioPCIDevice, ptr %59, i32 0, i32 3
  %61 = load ptr, ptr %3, align 8
  %62 = getelementptr inbounds nuw %struct.QVirtioPCIDevice, ptr %61, i32 0, i32 9
  %63 = load i32, ptr %62, align 8
  %64 = zext i32 %63 to i64
  %65 = add i64 %64, 4
  %66 = getelementptr inbounds nuw { i64, i8 }, ptr %60, i32 0, i32 0
  %67 = load i64, ptr %66, align 8
  %68 = getelementptr inbounds nuw { i64, i8 }, ptr %60, i32 0, i32 1
  %69 = load i8, ptr %68, align 8
  %70 = call i32 @qpci_io_readl(ptr noundef %58, i64 %67, i8 %69, i64 noundef %65)
  %71 = zext i32 %70 to i64
  store i64 %71, ptr %7, align 8
  %72 = load i64, ptr %7, align 8
  %73 = shl i64 %72, 32
  %74 = load i64, ptr %6, align 8
  %75 = or i64 %73, %74
  call void @llvm.lifetime.end.p0(i64 8, ptr %7) #5
  call void @llvm.lifetime.end.p0(i64 8, ptr %6) #5
  call void @llvm.lifetime.end.p0(i64 8, ptr %3) #5
  ret i64 %75
}