; Function Attrs: nounwind sspstrong uwtable
define internal i64 @get_features(ptr noundef readonly captures(none) %0) #0 {
  %2 = getelementptr inbounds nuw i8, ptr %0, i64 32
  %3 = load ptr, ptr %2, align 8
  %4 = getelementptr inbounds nuw i8, ptr %0, i64 40
  %5 = getelementptr inbounds nuw i8, ptr %0, i64 88
  %6 = load i32, ptr %5, align 8
  %7 = zext i32 %6 to i64
  %8 = load i64, ptr %4, align 8
  %9 = getelementptr inbounds nuw i8, ptr %0, i64 48
  %10 = load i8, ptr %9, align 8
  tail call void @qpci_io_writel(ptr noundef %3, i64 %8, i8 %10, i64 noundef %7, i32 noundef 0) #3
  %11 = load ptr, ptr %2, align 8
  %12 = load i32, ptr %5, align 8
  %13 = zext i32 %12 to i64
  %14 = add nuw nsw i64 %13, 4
  %15 = load i64, ptr %4, align 8
  %16 = load i8, ptr %9, align 8
  %17 = tail call i32 @qpci_io_readl(ptr noundef %11, i64 %15, i8 %16, i64 noundef %14) #3
  %18 = zext i32 %17 to i64
  %19 = load ptr, ptr %2, align 8
  %20 = load i32, ptr %5, align 8
  %21 = zext i32 %20 to i64
  %22 = load i64, ptr %4, align 8
  %23 = load i8, ptr %9, align 8
  tail call void @qpci_io_writel(ptr noundef %19, i64 %22, i8 %23, i64 noundef %21, i32 noundef 1) #3
  %24 = load ptr, ptr %2, align 8
  %25 = load i32, ptr %5, align 8
  %26 = zext i32 %25 to i64
  %27 = add nuw nsw i64 %26, 4
  %28 = load i64, ptr %4, align 8
  %29 = load i8, ptr %9, align 8
  %30 = tail call i32 @qpci_io_readl(ptr noundef %24, i64 %28, i8 %29, i64 noundef %27) #3
  %31 = zext i32 %30 to i64
  %32 = shl nuw i64 %31, 32
  %33 = or disjoint i64 %32, %18
  ret i64 %33
}